(lp0
(lp1
(S'111101101101'
p2
I1
tp3
a(S'1111100101110'
p4
I1
tp5
a(S'1000100'
p6
I1
tp7
a(S'1010'
p8
I1
tp9
a(S'110100'
p10
I1
tp11
a(S'01110111110'
p12
I1
tp13
a(S'011001010'
p14
I1
tp15
a(S'11100100'
p16
I1
tp17
a(S'1111010101110'
p18
I1
tp19
a(S'01010010011'
p20
I1
tp21
a(S'1111111010110'
p22
I1
tp23
a(S'10111100'
p24
I2
tp25
aa(lp26
(S'111110001101'
p27
I2
tp28
a(S'1111001111110'
p29
I4
tp30
a(S'11110010111011'
p31
I1
tp32
a(g10
I3
tp33
a(S'1111011011101'
p34
I1
tp35
a(g16
I1
tp36
a(g18
I1
tp37
a(S'010101010111'
p38
I1
tp39
a(g8
I2
tp40
a(S'011001100'
p41
I2
tp42
aa(lp43
(S'1111111100'
p44
I1
tp45
a(S'011110111111010'
p46
I1
tp47
a(S'01111000100'
p48
I1
tp49
a(S'11111101110100'
p50
I1
tp51
a(S'01111011000'
p52
I1
tp53
a(S'00101110'
p54
I1
tp55
a(S'1001110111'
p56
I1
tp57
a(g41
I1
tp58
aa.